; Function Attrs: mustprogress nofree norecurse nosync nounwind willreturn memory(none) uwtable
define noundef double @_ZN2mu9ParserInt3AddEdd(double noundef %0, double noundef %1) #2 align 2 {
  %3 = insertelement <2 x double> poison, double %1, i64 0
  %4 = insertelement <2 x double> %3, double %0, i64 1
  %5 = fcmp oge <2 x double> %4, zeroinitializer
  %6 = select <2 x i1> %5, <2 x double> <double 5.000000e-01, double 5.000000e-01>, <2 x double> <double -5.000000e-01, double -5.000000e-01>
  %7 = fadd <2 x double> %6, %4
  %8 = fptosi <2 x double> %7 to <2 x i32>
  %shift = shufflevector <2 x i32> %8, <2 x i32> poison, <2 x i32> <i32 1, i32 poison>
  %9 = add nsw <2 x i32> %shift, %8
  %10 = extractelement <2 x i32> %9, i64 0
  %11 = sitofp i32 %10 to double
  ret double %11
}